; Function Attrs: mustprogress uwtable
define noundef i32 @_ZN5dtm_t10do_commandENS_3reqE(ptr nocapture noundef nonnull align 8 dereferenceable(928) %0, i64 %1, i32 %2) local_unnamed_addr #0 align 2 {
  %4 = getelementptr inbounds i8, ptr %0, i64 872
  store i64 %1, ptr %4, align 8
  %.sroa.22.0..sroa_idx = getelementptr inbounds i8, ptr %0, i64 880
  store i32 %2, ptr %.sroa.22.0..sroa_idx, align 8
  %5 = getelementptr inbounds i8, ptr %0, i64 728
  %6 = load ptr, ptr %5, align 8
  tail call void @_ZN9context_t9switch_toEv(ptr noundef nonnull align 8 dereferenceable(32) %6)
  %7 = getelementptr inbounds i8, ptr %0, i64 888
  %8 = load i32, ptr %7, align 8
  ret i32 %8
}